; Function Attrs: mustprogress noreturn uwtable
define void @_ZN2cv4cuda6StreamC2Ev(ptr noundef nonnull align 8 captures(none) dereferenceable(16) initializes((0, 16)) %0) unnamed_addr #0 align 2 personality ptr @__gxx_personality_v0 {
  tail call void @llvm.memset.p0.i64(ptr noundef nonnull align 8 dereferenceable(16) %0, i8 0, i64 16, i1 false)
  invoke fastcc void @_ZL13throw_no_cudav() #11
          to label %2 unwind label %3

2:                                                ; preds = %1
  unreachable

3:                                                ; preds = %1
  %4 = landingpad { ptr, i32 }
          cleanup
  %5 = getelementptr inbounds nuw i8, ptr %0, i64 8
  %6 = load ptr, ptr %5, align 8, !tbaa !3
  %.not.i.i = icmp eq ptr %6, null
  br i1 %.not.i.i, label %_ZNSt12__shared_ptrIN2cv4cuda6Stream4ImplELN9__gnu_cxx12_Lock_policyE2EED2Ev.exit, label %7

7:                                                ; preds = %3
  %8 = getelementptr inbounds nuw i8, ptr %6, i64 8
  %9 = load atomic i64, ptr %8 acquire, align 8
  %10 = icmp eq i64 %9, 4294967297
  %11 = trunc i64 %9 to i32
  br i1 %10, label %12, label %20

12:                                               ; preds = %7
  store i32 0, ptr %8, align 8, !tbaa !9
  %13 = getelementptr inbounds nuw i8, ptr %6, i64 12
  store i32 0, ptr %13, align 4, !tbaa !12
  %14 = load ptr, ptr %6, align 8, !tbaa !13
  %15 = getelementptr inbounds nuw i8, ptr %14, i64 16
  %16 = load ptr, ptr %15, align 8
  tail call void %16(ptr noundef nonnull align 8 dereferenceable(16) %6) #12
  %17 = load ptr, ptr %6, align 8, !tbaa !13
  %18 = getelementptr inbounds nuw i8, ptr %17, i64 24
  %19 = load ptr, ptr %18, align 8
  tail call void %19(ptr noundef nonnull align 8 dereferenceable(16) %6) #12
  br label %_ZNSt12__shared_ptrIN2cv4cuda6Stream4ImplELN9__gnu_cxx12_Lock_policyE2EED2Ev.exit

20:                                               ; preds = %7
  %21 = load i8, ptr @__libc_single_threaded, align 1, !tbaa !15
  %.not.i.i.i = icmp eq i8 %21, 0
  br i1 %.not.i.i.i, label %24, label %22

22:                                               ; preds = %20
  %23 = add nsw i32 %11, -1
  store i32 %23, ptr %8, align 4, !tbaa !16
  br label %_ZN9__gnu_cxx27__exchange_and_add_dispatchEPii.exit.i.i.i

24:                                               ; preds = %20
  %25 = atomicrmw volatile add ptr %8, i32 -1 acq_rel, align 4
  br label %_ZN9__gnu_cxx27__exchange_and_add_dispatchEPii.exit.i.i.i

_ZN9__gnu_cxx27__exchange_and_add_dispatchEPii.exit.i.i.i: ; preds = %24, %22
  %.0.i.i.i.i = phi i32 [ %11, %22 ], [ %25, %24 ]
  %26 = icmp eq i32 %.0.i.i.i.i, 1
  br i1 %26, label %27, label %_ZNSt12__shared_ptrIN2cv4cuda6Stream4ImplELN9__gnu_cxx12_Lock_policyE2EED2Ev.exit, !prof !17

27:                                               ; preds = %_ZN9__gnu_cxx27__exchange_and_add_dispatchEPii.exit.i.i.i
  tail call void @_ZNSt16_Sp_counted_baseILN9__gnu_cxx12_Lock_policyE2EE24_M_release_last_use_coldEv(ptr noundef nonnull align 8 dereferenceable(16) %6) #12
  br label %_ZNSt12__shared_ptrIN2cv4cuda6Stream4ImplELN9__gnu_cxx12_Lock_policyE2EED2Ev.exit

_ZNSt12__shared_ptrIN2cv4cuda6Stream4ImplELN9__gnu_cxx12_Lock_policyE2EED2Ev.exit: ; preds = %3, %12, %_ZN9__gnu_cxx27__exchange_and_add_dispatchEPii.exit.i.i.i, %27
  resume { ptr, i32 } %4
}